target datalayout = "e-m:e-p270:32:32-p271:32:32-p272:64:64-i64:64-i128:128-f80:128-n8:16:32:64-S128"
target triple = "x86_64-pc-linux-gnu"

%struct.LocaleInfo = type { ptr, ptr, ptr, ptr }
%struct.lconv = type { ptr, ptr, ptr, ptr, ptr, ptr, ptr, ptr, ptr, ptr, i8, i8, i8, i8, i8, i8, i8, i8, i8, i8, i8, i8, i8, i8 }

@.str.18 = private unnamed_addr constant [2 x i8] c"\03\00", align 1
@.str.19 = private unnamed_addr constant [2 x i8] c"\04\00", align 1
@no_grouping = internal constant [1 x i8] c"\7F", align 1

; Function Attrs: nounwind uwtable
define internal i32 @get_locale_info(i32 noundef %0, ptr noundef %1) #0 {
  %3 = alloca i32, align 4
  %4 = alloca i32, align 4
  %5 = alloca ptr, align 8
  %6 = alloca ptr, align 8
  %7 = alloca i32, align 4
  store i32 %0, ptr %4, align 4, !tbaa !26
  store ptr %1, ptr %5, align 8, !tbaa !4
  %8 = load i32, ptr %4, align 4, !tbaa !26
  switch i32 %8, label %90 [
    i32 97, label %9
    i32 44, label %40
    i32 95, label %40
    i32 96, label %40
    i32 0, label %70
  ]

9:                                                ; preds = %2
  call void @llvm.lifetime.start.p0(i64 8, ptr %6) #10
  %10 = call ptr @localeconv() #10
  store ptr %10, ptr %6, align 8, !tbaa !56
  %11 = load ptr, ptr %6, align 8, !tbaa !56
  %12 = load ptr, ptr %5, align 8, !tbaa !4
  %13 = getelementptr inbounds nuw %struct.LocaleInfo, ptr %12, i32 0, i32 0
  %14 = load ptr, ptr %5, align 8, !tbaa !4
  %15 = getelementptr inbounds nuw %struct.LocaleInfo, ptr %14, i32 0, i32 1
  %16 = call i32 @_Py_GetLocaleconvNumeric(ptr noundef %11, ptr noundef %13, ptr noundef %15)
  %17 = icmp slt i32 %16, 0
  br i1 %17, label %18, label %19

18:                                               ; preds = %9
  store i32 -1, ptr %3, align 4
  store i32 1, ptr %7, align 4
  br label %38

19:                                               ; preds = %9
  %20 = load ptr, ptr %6, align 8, !tbaa !56
  %21 = getelementptr inbounds nuw %struct.lconv, ptr %20, i32 0, i32 2
  %22 = load ptr, ptr %21, align 8, !tbaa !58
  %23 = call ptr @_PyMem_Strdup(ptr noundef %22)
  %24 = load ptr, ptr %5, align 8, !tbaa !4
  %25 = getelementptr inbounds nuw %struct.LocaleInfo, ptr %24, i32 0, i32 3
  store ptr %23, ptr %25, align 8, !tbaa !60
  %26 = load ptr, ptr %5, align 8, !tbaa !4
  %27 = getelementptr inbounds nuw %struct.LocaleInfo, ptr %26, i32 0, i32 3
  %28 = load ptr, ptr %27, align 8, !tbaa !60
  %29 = icmp eq ptr %28, null
  br i1 %29, label %30, label %32

30:                                               ; preds = %19
  %31 = call ptr @PyErr_NoMemory()
  store i32 -1, ptr %3, align 4
  store i32 1, ptr %7, align 4
  br label %38

32:                                               ; preds = %19
  %33 = load ptr, ptr %5, align 8, !tbaa !4
  %34 = getelementptr inbounds nuw %struct.LocaleInfo, ptr %33, i32 0, i32 3
  %35 = load ptr, ptr %34, align 8, !tbaa !60
  %36 = load ptr, ptr %5, align 8, !tbaa !4
  %37 = getelementptr inbounds nuw %struct.LocaleInfo, ptr %36, i32 0, i32 2
  store ptr %35, ptr %37, align 8, !tbaa !62
  store i32 2, ptr %7, align 4
  br label %38

38:                                               ; preds = %32, %30, %18
  call void @llvm.lifetime.end.p0(i64 8, ptr %6) #10
  %39 = load i32, ptr %7, align 4
  switch i32 %39, label %93 [
    i32 1, label %91
    i32 2, label %90
  ]

40:                                               ; preds = %2, %2, %2
  %41 = call ptr @PyUnicode_FromOrdinal(i32 noundef 46)
  %42 = load ptr, ptr %5, align 8, !tbaa !4
  %43 = getelementptr inbounds nuw %struct.LocaleInfo, ptr %42, i32 0, i32 0
  store ptr %41, ptr %43, align 8, !tbaa !63
  %44 = load i32, ptr %4, align 4, !tbaa !26
  %45 = icmp eq i32 %44, 44
  %46 = select i1 %45, i32 44, i32 95
  %47 = call ptr @PyUnicode_FromOrdinal(i32 noundef %46)
  %48 = load ptr, ptr %5, align 8, !tbaa !4
  %49 = getelementptr inbounds nuw %struct.LocaleInfo, ptr %48, i32 0, i32 1
  store ptr %47, ptr %49, align 8, !tbaa !64
  %50 = load ptr, ptr %5, align 8, !tbaa !4
  %51 = getelementptr inbounds nuw %struct.LocaleInfo, ptr %50, i32 0, i32 0
  %52 = load ptr, ptr %51, align 8, !tbaa !63
  %53 = icmp ne ptr %52, null
  br i1 %53, label %54, label %59

54:                                               ; preds = %40
  %55 = load ptr, ptr %5, align 8, !tbaa !4
  %56 = getelementptr inbounds nuw %struct.LocaleInfo, ptr %55, i32 0, i32 1
  %57 = load ptr, ptr %56, align 8, !tbaa !64
  %58 = icmp ne ptr %57, null
  br i1 %58, label %60, label %59

59:                                               ; preds = %54, %40
  store i32 -1, ptr %3, align 4
  br label %91

60:                                               ; preds = %54
  %61 = load i32, ptr %4, align 4, !tbaa !26
  %62 = icmp ne i32 %61, 96
  br i1 %62, label %63, label %66

63:                                               ; preds = %60
  %64 = load ptr, ptr %5, align 8, !tbaa !4
  %65 = getelementptr inbounds nuw %struct.LocaleInfo, ptr %64, i32 0, i32 2
  store ptr @.str.18, ptr %65, align 8, !tbaa !62
  br label %69

66:                                               ; preds = %60
  %67 = load ptr, ptr %5, align 8, !tbaa !4
  %68 = getelementptr inbounds nuw %struct.LocaleInfo, ptr %67, i32 0, i32 2
  store ptr @.str.19, ptr %68, align 8, !tbaa !62
  br label %69

69:                                               ; preds = %66, %63
  br label %90

70:                                               ; preds = %2
  %71 = call ptr @PyUnicode_FromOrdinal(i32 noundef 46)
  %72 = load ptr, ptr %5, align 8, !tbaa !4
  %73 = getelementptr inbounds nuw %struct.LocaleInfo, ptr %72, i32 0, i32 0
  store ptr %71, ptr %73, align 8, !tbaa !63
  %74 = call ptr @Py_GetConstant(i32 noundef 7)
  %75 = load ptr, ptr %5, align 8, !tbaa !4
  %76 = getelementptr inbounds nuw %struct.LocaleInfo, ptr %75, i32 0, i32 1
  store ptr %74, ptr %76, align 8, !tbaa !64
  %77 = load ptr, ptr %5, align 8, !tbaa !4
  %78 = getelementptr inbounds nuw %struct.LocaleInfo, ptr %77, i32 0, i32 0
  %79 = load ptr, ptr %78, align 8, !tbaa !63
  %80 = icmp ne ptr %79, null
  br i1 %80, label %81, label %86

81:                                               ; preds = %70
  %82 = load ptr, ptr %5, align 8, !tbaa !4
  %83 = getelementptr inbounds nuw %struct.LocaleInfo, ptr %82, i32 0, i32 1
  %84 = load ptr, ptr %83, align 8, !tbaa !64
  %85 = icmp ne ptr %84, null
  br i1 %85, label %87, label %86

86:                                               ; preds = %81, %70
  store i32 -1, ptr %3, align 4
  br label %91

87:                                               ; preds = %81
  %88 = load ptr, ptr %5, align 8, !tbaa !4
  %89 = getelementptr inbounds nuw %struct.LocaleInfo, ptr %88, i32 0, i32 2
  store ptr @no_grouping, ptr %89, align 8, !tbaa !62
  br label %90

90:                                               ; preds = %2, %87, %69, %38
  store i32 0, ptr %3, align 4
  br label %91

91:                                               ; preds = %90, %86, %59, %38
  %92 = load i32, ptr %3, align 4
  ret i32 %92

93:                                               ; preds = %38
  unreachable
}