; Function Attrs: nounwind uwtable
define internal fastcc range(i32 -1, 1) i32 @get_locale_info(i32 noundef %0, ptr noundef nonnull %1) unnamed_addr #0 {
  switch i32 %0, label %.thread [
    i32 97, label %3
    i32 44, label %18
    i32 95, label %18
    i32 96, label %18
    i32 0, label %29
  ]

3:                                                ; preds = %2
  %4 = tail call ptr @localeconv() #12
  %5 = getelementptr inbounds nuw i8, ptr %1, i64 8
  %6 = tail call i32 @_Py_GetLocaleconvNumeric(ptr noundef %4, ptr noundef nonnull %1, ptr noundef nonnull %5) #12
  %7 = icmp slt i32 %6, 0
  br i1 %7, label %.thread, label %8

8:                                                ; preds = %3
  %9 = getelementptr inbounds nuw i8, ptr %4, i64 16
  %10 = load ptr, ptr %9, align 8, !tbaa !54
  %11 = tail call ptr @_PyMem_Strdup(ptr noundef %10) #12
  %12 = getelementptr inbounds nuw i8, ptr %1, i64 24
  store ptr %11, ptr %12, align 8, !tbaa !47
  %13 = icmp eq ptr %11, null
  br i1 %13, label %14, label %16

14:                                               ; preds = %8
  %15 = tail call ptr @PyErr_NoMemory() #12
  br label %.thread

16:                                               ; preds = %8
  %17 = getelementptr inbounds nuw i8, ptr %1, i64 16
  store ptr %11, ptr %17, align 8, !tbaa !56
  br label %.thread

18:                                               ; preds = %2, %2, %2
  %19 = tail call ptr @PyUnicode_FromOrdinal(i32 noundef 46) #12
  store ptr %19, ptr %1, align 8, !tbaa !44
  %20 = icmp eq i32 %0, 44
  %21 = select i1 %20, i32 44, i32 95
  %22 = tail call ptr @PyUnicode_FromOrdinal(i32 noundef %21) #12
  %23 = getelementptr inbounds nuw i8, ptr %1, i64 8
  store ptr %22, ptr %23, align 8, !tbaa !46
  %24 = load ptr, ptr %1, align 8, !tbaa !44
  %.not26 = icmp eq ptr %24, null
  %.not27 = icmp eq ptr %22, null
  %or.cond = select i1 %.not26, i1 true, i1 %.not27
  br i1 %or.cond, label %.thread, label %25

25:                                               ; preds = %18
  %.not28 = icmp eq i32 %0, 96
  %26 = getelementptr inbounds nuw i8, ptr %1, i64 16
  br i1 %.not28, label %28, label %27

27:                                               ; preds = %25
  store ptr @.str.18, ptr %26, align 8, !tbaa !56
  br label %.thread

28:                                               ; preds = %25
  store ptr @.str.19, ptr %26, align 8, !tbaa !56
  br label %.thread

29:                                               ; preds = %2
  %30 = tail call ptr @PyUnicode_FromOrdinal(i32 noundef 46) #12
  store ptr %30, ptr %1, align 8, !tbaa !44
  %31 = tail call ptr @Py_GetConstant(i32 noundef 7) #12
  %32 = getelementptr inbounds nuw i8, ptr %1, i64 8
  store ptr %31, ptr %32, align 8, !tbaa !46
  %33 = load ptr, ptr %1, align 8, !tbaa !44
  %.not = icmp eq ptr %33, null
  %.not25 = icmp eq ptr %31, null
  %or.cond29 = select i1 %.not, i1 true, i1 %.not25
  br i1 %or.cond29, label %.thread, label %34

34:                                               ; preds = %29
  %35 = getelementptr inbounds nuw i8, ptr %1, i64 16
  store ptr @no_grouping, ptr %35, align 8, !tbaa !56
  br label %.thread

.thread:                                          ; preds = %3, %14, %2, %34, %28, %27, %16, %29, %18
  %.1 = phi i32 [ -1, %18 ], [ -1, %29 ], [ 0, %16 ], [ 0, %27 ], [ 0, %28 ], [ 0, %34 ], [ 0, %2 ], [ -1, %14 ], [ -1, %3 ]
  ret i32 %.1
}